target datalayout = "e-m:e-p270:32:32-p271:32:32-p272:64:64-i64:64-i128:128-f80:128-n8:16:32:64-S128"
target triple = "x86_64-pc-linux-gnu"

%struct.epan_column_info = type { ptr, i32, ptr, ptr, ptr, %struct.col_expr_t, i32, ptr }
%struct.col_expr_t = type { ptr, ptr }
%struct.col_item_t = type { i32, ptr, ptr, ptr, i32, ptr, ptr, ptr, ptr, i32, i32, i32 }

@.str.1 = private unnamed_addr constant [1 x i8] zeroinitializer, align 1

; Function Attrs: nounwind uwtable
define i32 @col_get_writable(ptr noundef %0, i32 noundef %1) #0 {
  %3 = alloca i32, align 4
  %4 = alloca ptr, align 8
  %5 = alloca i32, align 4
  %6 = alloca i32, align 4
  %7 = alloca ptr, align 8
  store ptr %0, ptr %4, align 8
  store i32 %1, ptr %5, align 4
  %8 = load ptr, ptr %4, align 8
  %9 = icmp eq ptr %8, null
  br i1 %9, label %10, label %11

10:                                               ; preds = %2
  store i32 0, ptr %3, align 4
  br label %75

11:                                               ; preds = %2
  %12 = load i32, ptr %5, align 4
  %13 = icmp eq i32 %12, -1
  br i1 %13, label %19, label %14

14:                                               ; preds = %11
  %15 = load ptr, ptr %4, align 8
  %16 = getelementptr inbounds %struct.epan_column_info, ptr %15, i32 0, i32 6
  %17 = load i32, ptr %16, align 8
  %18 = icmp eq i32 %17, 0
  br i1 %18, label %19, label %23

19:                                               ; preds = %14, %11
  %20 = load ptr, ptr %4, align 8
  %21 = getelementptr inbounds %struct.epan_column_info, ptr %20, i32 0, i32 6
  %22 = load i32, ptr %21, align 8
  store i32 %22, ptr %3, align 4
  br label %75

23:                                               ; preds = %14
  %24 = load ptr, ptr %4, align 8
  %25 = getelementptr inbounds %struct.epan_column_info, ptr %24, i32 0, i32 3
  %26 = load ptr, ptr %25, align 8
  %27 = load i32, ptr %5, align 4
  %28 = sext i32 %27 to i64
  %29 = getelementptr i32, ptr %26, i64 %28
  %30 = load i32, ptr %29, align 4
  %31 = icmp sge i32 %30, 0
  br i1 %31, label %32, label %74

32:                                               ; preds = %23
  %33 = load ptr, ptr %4, align 8
  %34 = getelementptr inbounds %struct.epan_column_info, ptr %33, i32 0, i32 3
  %35 = load ptr, ptr %34, align 8
  %36 = load i32, ptr %5, align 4
  %37 = sext i32 %36 to i64
  %38 = getelementptr i32, ptr %35, i64 %37
  %39 = load i32, ptr %38, align 4
  store i32 %39, ptr %6, align 4
  br label %40

40:                                               ; preds = %70, %32
  %41 = load i32, ptr %6, align 4
  %42 = load ptr, ptr %4, align 8
  %43 = getelementptr inbounds %struct.epan_column_info, ptr %42, i32 0, i32 4
  %44 = load ptr, ptr %43, align 8
  %45 = load i32, ptr %5, align 4
  %46 = sext i32 %45 to i64
  %47 = getelementptr i32, ptr %44, i64 %46
  %48 = load i32, ptr %47, align 4
  %49 = icmp sle i32 %41, %48
  br i1 %49, label %50, label %73

50:                                               ; preds = %40
  %51 = load ptr, ptr %4, align 8
  %52 = getelementptr inbounds %struct.epan_column_info, ptr %51, i32 0, i32 2
  %53 = load ptr, ptr %52, align 8
  %54 = load i32, ptr %6, align 4
  %55 = sext i32 %54 to i64
  %56 = getelementptr %struct.col_item_t, ptr %53, i64 %55
  store ptr %56, ptr %7, align 8
  %57 = load ptr, ptr %7, align 8
  %58 = getelementptr inbounds %struct.col_item_t, ptr %57, i32 0, i32 1
  %59 = load ptr, ptr %58, align 8
  %60 = load i32, ptr %5, align 4
  %61 = sext i32 %60 to i64
  %62 = getelementptr i32, ptr %59, i64 %61
  %63 = load i32, ptr %62, align 4
  %64 = icmp ne i32 %63, 0
  br i1 %64, label %65, label %69

65:                                               ; preds = %50
  %66 = load ptr, ptr %7, align 8
  %67 = getelementptr inbounds %struct.col_item_t, ptr %66, i32 0, i32 10
  %68 = load i32, ptr %67, align 4
  store i32 %68, ptr %3, align 4
  br label %75

69:                                               ; preds = %50
  br label %70

70:                                               ; preds = %69
  %71 = load i32, ptr %6, align 4
  %72 = add i32 %71, 1
  store i32 %72, ptr %6, align 4
  br label %40, !llvm.loop !9

73:                                               ; preds = %40
  br label %74

74:                                               ; preds = %73, %23
  store i32 0, ptr %3, align 4
  br label %75

75:                                               ; preds = %74, %65, %19, %10
  %76 = load i32, ptr %3, align 4
  ret i32 %76
}

; Function Attrs: nounwind uwtable
define void @col_clear(ptr noundef %0, i32 noundef %1) #0 {
  %3 = alloca ptr, align 8
  %4 = alloca i32, align 4
  %5 = alloca i32, align 4
  %6 = alloca ptr, align 8
  store ptr %0, ptr %3, align 8
  store i32 %1, ptr %4, align 4
  %7 = load ptr, ptr %3, align 8
  %8 = load i32, ptr %4, align 4
  %9 = call i32 @col_get_writable(ptr noundef %7, i32 noundef %8)
  %10 = icmp ne i32 %9, 0
  br i1 %10, label %11, label %20

11:                                               ; preds = %2
  %12 = load ptr, ptr %3, align 8
  %13 = getelementptr inbounds %struct.epan_column_info, ptr %12, i32 0, i32 3
  %14 = load ptr, ptr %13, align 8
  %15 = load i32, ptr %4, align 4
  %16 = sext i32 %15 to i64
  %17 = getelementptr i32, ptr %14, i64 %16
  %18 = load i32, ptr %17, align 4
  %19 = icmp sge i32 %18, 0
  br i1 %19, label %21, label %20

20:                                               ; preds = %11, %2
  br label %102

21:                                               ; preds = %11
  %22 = load ptr, ptr %3, align 8
  %23 = getelementptr inbounds %struct.epan_column_info, ptr %22, i32 0, i32 3
  %24 = load ptr, ptr %23, align 8
  %25 = load i32, ptr %4, align 4
  %26 = sext i32 %25 to i64
  %27 = getelementptr i32, ptr %24, i64 %26
  %28 = load i32, ptr %27, align 4
  store i32 %28, ptr %5, align 4
  br label %29

29:                                               ; preds = %99, %21
  %30 = load i32, ptr %5, align 4
  %31 = load ptr, ptr %3, align 8
  %32 = getelementptr inbounds %struct.epan_column_info, ptr %31, i32 0, i32 4
  %33 = load ptr, ptr %32, align 8
  %34 = load i32, ptr %4, align 4
  %35 = sext i32 %34 to i64
  %36 = getelementptr i32, ptr %33, i64 %35
  %37 = load i32, ptr %36, align 4
  %38 = icmp sle i32 %30, %37
  br i1 %38, label %39, label %102

39:                                               ; preds = %29
  %40 = load ptr, ptr %3, align 8
  %41 = getelementptr inbounds %struct.epan_column_info, ptr %40, i32 0, i32 2
  %42 = load ptr, ptr %41, align 8
  %43 = load i32, ptr %5, align 4
  %44 = sext i32 %43 to i64
  %45 = getelementptr %struct.col_item_t, ptr %42, i64 %44
  store ptr %45, ptr %6, align 8
  %46 = load ptr, ptr %6, align 8
  %47 = getelementptr inbounds %struct.col_item_t, ptr %46, i32 0, i32 1
  %48 = load ptr, ptr %47, align 8
  %49 = load i32, ptr %4, align 4
  %50 = sext i32 %49 to i64
  %51 = getelementptr i32, ptr %48, i64 %50
  %52 = load i32, ptr %51, align 4
  %53 = icmp ne i32 %52, 0
  br i1 %53, label %54, label %98

54:                                               ; preds = %39
  %55 = load ptr, ptr %6, align 8
  %56 = getelementptr inbounds %struct.col_item_t, ptr %55, i32 0, i32 8
  %57 = load ptr, ptr %56, align 8
  %58 = load ptr, ptr %6, align 8
  %59 = getelementptr inbounds %struct.col_item_t, ptr %58, i32 0, i32 7
  %60 = load ptr, ptr %59, align 8
  %61 = icmp eq ptr %57, %60
  br i1 %61, label %67, label %62

62:                                               ; preds = %54
  %63 = load ptr, ptr %6, align 8
  %64 = getelementptr inbounds %struct.col_item_t, ptr %63, i32 0, i32 9
  %65 = load i32, ptr %64, align 8
  %66 = icmp eq i32 %65, 0
  br i1 %66, label %67, label %81

67:                                               ; preds = %62, %54
  %68 = load ptr, ptr %6, align 8
  %69 = getelementptr inbounds %struct.col_item_t, ptr %68, i32 0, i32 8
  %70 = load ptr, ptr %69, align 8
  %71 = load ptr, ptr %6, align 8
  %72 = getelementptr inbounds %struct.col_item_t, ptr %71, i32 0, i32 9
  %73 = load i32, ptr %72, align 8
  %74 = sext i32 %73 to i64
  %75 = getelementptr i8, ptr %70, i64 %74
  store i8 0, ptr %75, align 1
  %76 = load ptr, ptr %6, align 8
  %77 = getelementptr inbounds %struct.col_item_t, ptr %76, i32 0, i32 8
  %78 = load ptr, ptr %77, align 8
  %79 = load ptr, ptr %6, align 8
  %80 = getelementptr inbounds %struct.col_item_t, ptr %79, i32 0, i32 7
  store ptr %78, ptr %80, align 8
  br label %81

81:                                               ; preds = %67, %62
  %82 = load ptr, ptr %3, align 8
  %83 = getelementptr inbounds %struct.epan_column_info, ptr %82, i32 0, i32 5
  %84 = getelementptr inbounds %struct.col_expr_t, ptr %83, i32 0, i32 0
  %85 = load ptr, ptr %84, align 8
  %86 = load i32, ptr %5, align 4
  %87 = sext i32 %86 to i64
  %88 = getelementptr ptr, ptr %85, i64 %87
  store ptr @.str.1, ptr %88, align 8
  %89 = load ptr, ptr %3, align 8
  %90 = getelementptr inbounds %struct.epan_column_info, ptr %89, i32 0, i32 5
  %91 = getelementptr inbounds %struct.col_expr_t, ptr %90, i32 0, i32 1
  %92 = load ptr, ptr %91, align 8
  %93 = load i32, ptr %5, align 4
  %94 = sext i32 %93 to i64
  %95 = getelementptr ptr, ptr %92, i64 %94
  %96 = load ptr, ptr %95, align 8
  %97 = getelementptr i8, ptr %96, i64 0
  store i8 0, ptr %97, align 1
  br label %98

98:                                               ; preds = %81, %39
  br label %99

99:                                               ; preds = %98
  %100 = load i32, ptr %5, align 4
  %101 = add i32 %100, 1
  store i32 %101, ptr %5, align 4
  br label %29, !llvm.loop !14

102:                                              ; preds = %29, %20
  ret void
}