; Function Attrs: nofree norecurse nosync nounwind memory(readwrite, inaccessiblemem: none) uwtable
define void @col_clear(ptr noundef readonly %0, i32 noundef %1) local_unnamed_addr #4 {
  %3 = icmp eq ptr %0, null
  br i1 %3, label %col_get_writable.exit.thread, label %4

4:                                                ; preds = %2
  %5 = icmp eq i32 %1, -1
  %.phi.trans.insert.i = getelementptr inbounds nuw i8, ptr %0, i64 56
  %.pre.i = load i32, ptr %.phi.trans.insert.i, align 8
  br i1 %5, label %col_get_writable.exit, label %6

6:                                                ; preds = %4
  %7 = icmp eq i32 %.pre.i, 0
  br i1 %7, label %col_get_writable.exit.thread, label %8

8:                                                ; preds = %6
  %9 = getelementptr inbounds nuw i8, ptr %0, i64 24
  %10 = load ptr, ptr %9, align 8
  %11 = sext i32 %1 to i64
  %12 = getelementptr i32, ptr %10, i64 %11
  %13 = load i32, ptr %12, align 4
  %14 = icmp sgt i32 %13, -1
  br i1 %14, label %.preheader.i, label %col_get_writable.exit.thread

.preheader.i:                                     ; preds = %8
  %15 = getelementptr inbounds nuw i8, ptr %0, i64 32
  %16 = load ptr, ptr %15, align 8
  %17 = getelementptr i32, ptr %16, i64 %11
  %18 = load i32, ptr %17, align 4
  %.not22.i = icmp sgt i32 %13, %18
  br i1 %.not22.i, label %col_get_writable.exit.thread, label %.lr.ph.i

.lr.ph.i:                                         ; preds = %.preheader.i
  %19 = getelementptr inbounds nuw i8, ptr %0, i64 16
  %20 = load ptr, ptr %19, align 8
  br label %23

21:                                               ; preds = %23
  %22 = add i32 %.01723.i, 1
  %.not.i = icmp sgt i32 %22, %18
  br i1 %.not.i, label %col_get_writable.exit.thread, label %23, !llvm.loop !9

23:                                               ; preds = %21, %.lr.ph.i
  %.01723.i = phi i32 [ %13, %.lr.ph.i ], [ %22, %21 ]
  %24 = sext i32 %.01723.i to i64
  %25 = getelementptr %struct.col_item_t, ptr %20, i64 %24
  %26 = getelementptr inbounds nuw i8, ptr %25, i64 8
  %27 = load ptr, ptr %26, align 8
  %28 = getelementptr i32, ptr %27, i64 %11
  %29 = load i32, ptr %28, align 4
  %.not21.i = icmp eq i32 %29, 0
  br i1 %.not21.i, label %21, label %30

30:                                               ; preds = %23
  %31 = getelementptr inbounds nuw i8, ptr %25, i64 76
  %32 = load i32, ptr %31, align 4
  br label %col_get_writable.exit

col_get_writable.exit:                            ; preds = %4, %30
  %.0.i = phi i32 [ %32, %30 ], [ %.pre.i, %4 ]
  %.not = icmp eq i32 %.0.i, 0
  br i1 %.not, label %col_get_writable.exit.thread, label %33

33:                                               ; preds = %col_get_writable.exit
  %34 = getelementptr inbounds nuw i8, ptr %0, i64 24
  %35 = load ptr, ptr %34, align 8
  %36 = sext i32 %1 to i64
  %37 = getelementptr i32, ptr %35, i64 %36
  %38 = load i32, ptr %37, align 4
  %39 = icmp sgt i32 %38, -1
  br i1 %39, label %.preheader, label %col_get_writable.exit.thread

.preheader:                                       ; preds = %33
  %40 = getelementptr inbounds nuw i8, ptr %0, i64 32
  %41 = load ptr, ptr %40, align 8
  %42 = getelementptr i32, ptr %41, i64 %36
  %43 = load i32, ptr %42, align 4
  %.not2531 = icmp sgt i32 %38, %43
  br i1 %.not2531, label %col_get_writable.exit.thread, label %.lr.ph

.lr.ph:                                           ; preds = %.preheader
  %44 = getelementptr inbounds nuw i8, ptr %0, i64 16
  %45 = getelementptr inbounds nuw i8, ptr %0, i64 40
  %46 = getelementptr inbounds nuw i8, ptr %0, i64 48
  br label %47

47:                                               ; preds = %.lr.ph, %75
  %48 = phi ptr [ %41, %.lr.ph ], [ %76, %75 ]
  %.032 = phi i32 [ %38, %.lr.ph ], [ %77, %75 ]
  %49 = load ptr, ptr %44, align 8
  %50 = sext i32 %.032 to i64
  %51 = getelementptr %struct.col_item_t, ptr %49, i64 %50
  %52 = getelementptr inbounds nuw i8, ptr %51, i64 8
  %53 = load ptr, ptr %52, align 8
  %54 = getelementptr i32, ptr %53, i64 %36
  %55 = load i32, ptr %54, align 4
  %.not26 = icmp eq i32 %55, 0
  br i1 %.not26, label %75, label %56

56:                                               ; preds = %47
  %57 = getelementptr inbounds nuw i8, ptr %51, i64 64
  %58 = load ptr, ptr %57, align 8
  %59 = getelementptr inbounds nuw i8, ptr %51, i64 56
  %60 = load ptr, ptr %59, align 8
  %61 = icmp eq ptr %58, %60
  %.phi.trans.insert = getelementptr inbounds nuw i8, ptr %51, i64 72
  %.pre = load i32, ptr %.phi.trans.insert, align 8
  br i1 %61, label %._crit_edge, label %63

._crit_edge:                                      ; preds = %56
  %62 = sext i32 %.pre to i64
  br label %65

63:                                               ; preds = %56
  %64 = icmp eq i32 %.pre, 0
  br i1 %64, label %65, label %69

65:                                               ; preds = %._crit_edge, %63
  %66 = phi i64 [ %62, %._crit_edge ], [ 0, %63 ]
  %67 = getelementptr i8, ptr %58, i64 %66
  store i8 0, ptr %67, align 1
  %68 = load ptr, ptr %57, align 8
  store ptr %68, ptr %59, align 8
  br label %69

69:                                               ; preds = %65, %63
  %70 = load ptr, ptr %45, align 8
  %71 = getelementptr ptr, ptr %70, i64 %50
  store ptr @.str.1, ptr %71, align 8
  %72 = load ptr, ptr %46, align 8
  %73 = getelementptr ptr, ptr %72, i64 %50
  %74 = load ptr, ptr %73, align 8
  store i8 0, ptr %74, align 1
  %.pre35 = load ptr, ptr %40, align 8
  br label %75

75:                                               ; preds = %47, %69
  %76 = phi ptr [ %48, %47 ], [ %.pre35, %69 ]
  %77 = add i32 %.032, 1
  %78 = getelementptr i32, ptr %76, i64 %36
  %79 = load i32, ptr %78, align 4
  %.not25 = icmp sgt i32 %77, %79
  br i1 %.not25, label %col_get_writable.exit.thread, label %47, !llvm.loop !14

col_get_writable.exit.thread:                     ; preds = %21, %75, %.preheader, %6, %.preheader.i, %8, %2, %col_get_writable.exit, %33
  ret void
}